; Function Attrs: mustprogress uwtable
define dso_local void @_ZN4Luau7CodeGen3X6418AssemblyBuilderX645bswapENS1_11RegisterX64E(ptr noundef nonnull align 8 dereferenceable(252) %0, i8 %1) local_unnamed_addr #0 align 2 {
  %3 = getelementptr inbounds nuw i8, ptr %0, i64 80
  %4 = load i8, ptr %3, align 8, !tbaa !14, !range !61, !noundef !62
  %5 = trunc nuw i8 %4 to i1
  br i1 %5, label %6, label %7

6:                                                ; preds = %2
  %.sroa.3.0.insert.ext = zext i8 %1 to i64
  %.sroa.3.0.insert.shift = shl nuw nsw i64 %.sroa.3.0.insert.ext, 16
  %.sroa.2.0.insert.insert = or disjoint i64 %.sroa.3.0.insert.shift, 268468224
  tail call void @_ZN4Luau7CodeGen3X6418AssemblyBuilderX643logEPKcNS1_10OperandX64E(ptr noundef nonnull align 8 dereferenceable(252) %0, ptr noundef nonnull @.str.36, i64 %.sroa.2.0.insert.insert)
  br label %7

7:                                                ; preds = %6, %2
  %8 = and i8 %1, 7
  %9 = icmp eq i8 %8, 4
  %10 = icmp eq i8 %8, 1
  %11 = icmp ugt i8 %1, 31
  %12 = and i1 %11, %10
  %13 = or i1 %9, %12
  %14 = select i1 %13, i8 8, i8 0
  %15 = lshr i8 %1, 6
  %16 = and i8 %15, 1
  %17 = or disjoint i8 %14, %16
  %.not.i = icmp eq i8 %17, 0
  br i1 %.not.i, label %_ZN4Luau7CodeGen3X6418AssemblyBuilderX648placeRexENS1_11RegisterX64E.exit, label %18

18:                                               ; preds = %7
  %19 = or disjoint i8 %17, 64
  %20 = getelementptr inbounds nuw i8, ptr %0, i64 232
  %21 = load ptr, ptr %20, align 8, !tbaa !51
  %22 = getelementptr inbounds nuw i8, ptr %21, i64 1
  store ptr %22, ptr %20, align 8, !tbaa !51
  store i8 %19, ptr %21, align 1, !tbaa !13
  br label %_ZN4Luau7CodeGen3X6418AssemblyBuilderX648placeRexENS1_11RegisterX64E.exit

_ZN4Luau7CodeGen3X6418AssemblyBuilderX648placeRexENS1_11RegisterX64E.exit: ; preds = %7, %18
  %23 = getelementptr inbounds nuw i8, ptr %0, i64 232
  %24 = load ptr, ptr %23, align 8, !tbaa !51
  %25 = getelementptr inbounds nuw i8, ptr %24, i64 1
  store ptr %25, ptr %23, align 8, !tbaa !51
  store i8 15, ptr %24, align 1, !tbaa !13
  %26 = lshr i8 %1, 3
  %27 = and i8 %26, 7
  %28 = or disjoint i8 %27, -56
  %29 = load ptr, ptr %23, align 8, !tbaa !51
  %30 = getelementptr inbounds nuw i8, ptr %29, i64 1
  store ptr %30, ptr %23, align 8, !tbaa !51
  store i8 %28, ptr %29, align 1, !tbaa !13
  %31 = getelementptr inbounds nuw i8, ptr %0, i64 248
  %32 = load i32, ptr %31, align 8, !tbaa !63
  %33 = add i32 %32, 1
  store i32 %33, ptr %31, align 8, !tbaa !63
  %34 = getelementptr inbounds nuw i8, ptr %0, i64 240
  %35 = load ptr, ptr %34, align 8, !tbaa !52
  %36 = load ptr, ptr %23, align 8, !tbaa !51
  %37 = ptrtoint ptr %35 to i64
  %38 = ptrtoint ptr %36 to i64
  %39 = sub i64 %37, %38
  %40 = and i64 %39, 4294967280
  %41 = icmp eq i64 %40, 0
  br i1 %41, label %42, label %_ZN4Luau7CodeGen3X6418AssemblyBuilderX646commitEv.exit

42:                                               ; preds = %_ZN4Luau7CodeGen3X6418AssemblyBuilderX648placeRexENS1_11RegisterX64E.exit
  tail call void @_ZN4Luau7CodeGen3X6418AssemblyBuilderX646extendEv(ptr noundef nonnull align 8 dereferenceable(252) %0)
  br label %_ZN4Luau7CodeGen3X6418AssemblyBuilderX646commitEv.exit

_ZN4Luau7CodeGen3X6418AssemblyBuilderX646commitEv.exit: ; preds = %_ZN4Luau7CodeGen3X6418AssemblyBuilderX648placeRexENS1_11RegisterX64E.exit, %42
  ret void
}